ccopy_reg
_reconstructor
p0
(csklearn.linear_model.base
LinearRegression
p1
c__builtin__
object
p2
Ntp3
Rp4
(dp5
S'normalize'
p6
I00
sS'n_jobs'
p7
I1
sS'rank_'
p8
I4
sS'fit_intercept'
p9
I01
sS'_residues'
p10
cnumpy.core.multiarray
scalar
p11
(cnumpy
dtype
p12
(S'f8'
p13
I0
I1
tp14
Rp15
(I3
S'<'
p16
NNNI-1
I-1
I0
tp17
bS'\x00\xed\xe8\xfd\xa6gIA'
p18
tp19
Rp20
sS'singular_'
p21
cnumpy.core.multiarray
_reconstruct
p22
(cnumpy
ndarray
p23
(I0
tp24
S'b'
p25
tp26
Rp27
(I1
(I4
tp28
g15
I00
S"\x12\xd1\xbd\xa6\xd7\xeaQ@\xc9\x14\xb8F\xad'M@xI9-\xec~@@\x18\x96\x1c\xf7\xc5\xde6@"
p29
tp30
bsS'coef_'
p31
g22
(g23
(I0
tp32
g25
tp33
Rp34
(I1
(I4
tp35
g15
I00
S'\xd4K\x15\xd4\x16\xaaj@\xba\xa7\xf1&c\xd4\xfa\xbf\xde\xb3\xf4\xdc\xc8T\xeb\xbfx\xd2\x90:\xfex\x0b\xc0'
p36
tp37
bsS'_sklearn_version'
p38
S'0.18.1'
p39
sS'copy_X'
p40
I01
sS'intercept_'
p41
g11
(g15
S'\x9fr2\xdf@\xbew@'
p42
tp43
Rp44
sb.